; ModuleID = '32/1685.c'
source_filename = "32/1685.c"
target datalayout = "e-m:e-p270:32:32-p271:32:32-p272:64:64-i64:64-f80:128-n8:16:32:64-S128"
target triple = "x86_64-pc-linux-gnu"

@.str = private unnamed_addr constant [3 x i8] c"%d\00", align 1
@.str.1 = private unnamed_addr constant [6 x i8] c"%s %s\00", align 1
@.str.2 = private unnamed_addr constant [4 x i8] c"%s\0A\00", align 1
@.str.3 = private unnamed_addr constant [3 x i8] c"%s\00", align 1

; Function Attrs: noinline nounwind uwtable
define dso_local void @main() #0 {
  %1 = alloca i32, align 4
  %2 = alloca i32, align 4
  %3 = alloca i32, align 4
  %4 = alloca i32, align 4
  %5 = alloca i32, align 4
  %6 = alloca i32, align 4
  %7 = alloca [100 x [200 x i8]], align 16
  %8 = alloca [100 x [200 x i8]], align 16
  %9 = alloca [100 x i8], align 16
  store i32 0, i32* %6, align 4
  %10 = call i32 (i8*, ...) @__isoc99_scanf(i8* getelementptr inbounds ([3 x i8], [3 x i8]* @.str, i64 0, i64 0), i32* %1)
  store i32 0, i32* %2, align 4
  br label %11

11:                                               ; preds = %25, %0
  %12 = load i32, i32* %2, align 4
  %13 = load i32, i32* %1, align 4
  %14 = icmp slt i32 %12, %13
  br i1 %14, label %15, label %28

15:                                               ; preds = %11
  %16 = load i32, i32* %2, align 4
  %17 = sext i32 %16 to i64
  %18 = getelementptr inbounds [100 x [200 x i8]], [100 x [200 x i8]]* %7, i64 0, i64 %17
  %19 = getelementptr inbounds [200 x i8], [200 x i8]* %18, i64 0, i64 0
  %20 = load i32, i32* %2, align 4
  %21 = sext i32 %20 to i64
  %22 = getelementptr inbounds [100 x [200 x i8]], [100 x [200 x i8]]* %8, i64 0, i64 %21
  %23 = getelementptr inbounds [200 x i8], [200 x i8]* %22, i64 0, i64 0
  %24 = call i32 (i8*, ...) @__isoc99_scanf(i8* getelementptr inbounds ([6 x i8], [6 x i8]* @.str.1, i64 0, i64 0), i8* %19, i8* %23)
  br label %25

25:                                               ; preds = %15
  %26 = load i32, i32* %2, align 4
  %27 = add nsw i32 %26, 1
  store i32 %27, i32* %2, align 4
  br label %11

28:                                               ; preds = %11
  store i32 0, i32* %2, align 4
  br label %29

29:                                               ; preds = %189, %28
  %30 = load i32, i32* %2, align 4
  %31 = load i32, i32* %1, align 4
  %32 = icmp slt i32 %30, %31
  br i1 %32, label %33, label %192

33:                                               ; preds = %29
  %34 = getelementptr inbounds [100 x i8], [100 x i8]* %9, i64 0, i64 0
  %35 = load i32, i32* %2, align 4
  %36 = sext i32 %35 to i64
  %37 = getelementptr inbounds [100 x [200 x i8]], [100 x [200 x i8]]* %8, i64 0, i64 %36
  %38 = getelementptr inbounds [200 x i8], [200 x i8]* %37, i64 0, i64 0
  %39 = call i8* @strcpy(i8* %34, i8* %38) #4
  store i32 0, i32* %6, align 4
  %40 = load i32, i32* %2, align 4
  %41 = sext i32 %40 to i64
  %42 = getelementptr inbounds [100 x [200 x i8]], [100 x [200 x i8]]* %7, i64 0, i64 %41
  %43 = getelementptr inbounds [200 x i8], [200 x i8]* %42, i64 0, i64 0
  %44 = call i64 @strlen(i8* %43) #5
  %45 = load i32, i32* %2, align 4
  %46 = sext i32 %45 to i64
  %47 = getelementptr inbounds [100 x [200 x i8]], [100 x [200 x i8]]* %8, i64 0, i64 %46
  %48 = getelementptr inbounds [200 x i8], [200 x i8]* %47, i64 0, i64 0
  %49 = call i64 @strlen(i8* %48) #5
  %50 = sub i64 %44, %49
  %51 = trunc i64 %50 to i32
  store i32 %51, i32* %5, align 4
  store i32 0, i32* %3, align 4
  br label %52

52:                                               ; preds = %63, %33
  %53 = load i32, i32* %3, align 4
  %54 = load i32, i32* %5, align 4
  %55 = icmp slt i32 %53, %54
  br i1 %55, label %56, label %66

56:                                               ; preds = %52
  %57 = load i32, i32* %2, align 4
  %58 = sext i32 %57 to i64
  %59 = getelementptr inbounds [100 x [200 x i8]], [100 x [200 x i8]]* %8, i64 0, i64 %58
  %60 = load i32, i32* %3, align 4
  %61 = sext i32 %60 to i64
  %62 = getelementptr inbounds [200 x i8], [200 x i8]* %59, i64 0, i64 %61
  store i8 48, i8* %62, align 1
  br label %63

63:                                               ; preds = %56
  %64 = load i32, i32* %3, align 4
  %65 = add nsw i32 %64, 1
  store i32 %65, i32* %3, align 4
  br label %52

66:                                               ; preds = %52
  %67 = load i32, i32* %2, align 4
  %68 = sext i32 %67 to i64
  %69 = getelementptr inbounds [100 x [200 x i8]], [100 x [200 x i8]]* %8, i64 0, i64 %68
  %70 = load i32, i32* %3, align 4
  %71 = sext i32 %70 to i64
  %72 = getelementptr inbounds [200 x i8], [200 x i8]* %69, i64 0, i64 %71
  store i8 0, i8* %72, align 1
  %73 = load i32, i32* %2, align 4
  %74 = sext i32 %73 to i64
  %75 = getelementptr inbounds [100 x [200 x i8]], [100 x [200 x i8]]* %8, i64 0, i64 %74
  %76 = getelementptr inbounds [200 x i8], [200 x i8]* %75, i64 0, i64 0
  %77 = getelementptr inbounds [100 x i8], [100 x i8]* %9, i64 0, i64 0
  %78 = call i8* @strcat(i8* %76, i8* %77) #4
  %79 = load i32, i32* %2, align 4
  %80 = sext i32 %79 to i64
  %81 = getelementptr inbounds [100 x [200 x i8]], [100 x [200 x i8]]* %7, i64 0, i64 %80
  %82 = getelementptr inbounds [200 x i8], [200 x i8]* %81, i64 0, i64 0
  %83 = call i64 @strlen(i8* %82) #5
  %84 = trunc i64 %83 to i32
  store i32 %84, i32* %4, align 4
  %85 = load i32, i32* %4, align 4
  %86 = sub nsw i32 %85, 1
  store i32 %86, i32* %3, align 4
  br label %87

87:                                               ; preds = %168, %66
  %88 = load i32, i32* %3, align 4
  %89 = icmp sge i32 %88, 0
  br i1 %89, label %90, label %171

90:                                               ; preds = %87
  %91 = load i32, i32* %2, align 4
  %92 = sext i32 %91 to i64
  %93 = getelementptr inbounds [100 x [200 x i8]], [100 x [200 x i8]]* %7, i64 0, i64 %92
  %94 = load i32, i32* %3, align 4
  %95 = sext i32 %94 to i64
  %96 = getelementptr inbounds [200 x i8], [200 x i8]* %93, i64 0, i64 %95
  %97 = load i8, i8* %96, align 1
  %98 = sext i8 %97 to i32
  %99 = load i32, i32* %6, align 4
  %100 = add nsw i32 %98, %99
  %101 = load i32, i32* %2, align 4
  %102 = sext i32 %101 to i64
  %103 = getelementptr inbounds [100 x [200 x i8]], [100 x [200 x i8]]* %8, i64 0, i64 %102
  %104 = load i32, i32* %3, align 4
  %105 = sext i32 %104 to i64
  %106 = getelementptr inbounds [200 x i8], [200 x i8]* %103, i64 0, i64 %105
  %107 = load i8, i8* %106, align 1
  %108 = sext i8 %107 to i32
  %109 = sub nsw i32 %100, %108
  %110 = icmp sge i32 %109, 0
  br i1 %110, label %111, label %139

111:                                              ; preds = %90
  %112 = load i32, i32* %2, align 4
  %113 = sext i32 %112 to i64
  %114 = getelementptr inbounds [100 x [200 x i8]], [100 x [200 x i8]]* %7, i64 0, i64 %113
  %115 = load i32, i32* %3, align 4
  %116 = sext i32 %115 to i64
  %117 = getelementptr inbounds [200 x i8], [200 x i8]* %114, i64 0, i64 %116
  %118 = load i8, i8* %117, align 1
  %119 = sext i8 %118 to i32
  %120 = load i32, i32* %6, align 4
  %121 = add nsw i32 %119, %120
  %122 = load i32, i32* %2, align 4
  %123 = sext i32 %122 to i64
  %124 = getelementptr inbounds [100 x [200 x i8]], [100 x [200 x i8]]* %8, i64 0, i64 %123
  %125 = load i32, i32* %3, align 4
  %126 = sext i32 %125 to i64
  %127 = getelementptr inbounds [200 x i8], [200 x i8]* %124, i64 0, i64 %126
  %128 = load i8, i8* %127, align 1
  %129 = sext i8 %128 to i32
  %130 = sub nsw i32 %121, %129
  %131 = add nsw i32 %130, 48
  %132 = trunc i32 %131 to i8
  %133 = load i32, i32* %2, align 4
  %134 = sext i32 %133 to i64
  %135 = getelementptr inbounds [100 x [200 x i8]], [100 x [200 x i8]]* %7, i64 0, i64 %134
  %136 = load i32, i32* %3, align 4
  %137 = sext i32 %136 to i64
  %138 = getelementptr inbounds [200 x i8], [200 x i8]* %135, i64 0, i64 %137
  store i8 %132, i8* %138, align 1
  store i32 0, i32* %6, align 4
  br label %167

139:                                              ; preds = %90
  %140 = load i32, i32* %2, align 4
  %141 = sext i32 %140 to i64
  %142 = getelementptr inbounds [100 x [200 x i8]], [100 x [200 x i8]]* %7, i64 0, i64 %141
  %143 = load i32, i32* %3, align 4
  %144 = sext i32 %143 to i64
  %145 = getelementptr inbounds [200 x i8], [200 x i8]* %142, i64 0, i64 %144
  %146 = load i8, i8* %145, align 1
  %147 = sext i8 %146 to i32
  %148 = load i32, i32* %6, align 4
  %149 = add nsw i32 %147, %148
  %150 = load i32, i32* %2, align 4
  %151 = sext i32 %150 to i64
  %152 = getelementptr inbounds [100 x [200 x i8]], [100 x [200 x i8]]* %8, i64 0, i64 %151
  %153 = load i32, i32* %3, align 4
  %154 = sext i32 %153 to i64
  %155 = getelementptr inbounds [200 x i8], [200 x i8]* %152, i64 0, i64 %154
  %156 = load i8, i8* %155, align 1
  %157 = sext i8 %156 to i32
  %158 = sub nsw i32 %149, %157
  %159 = add nsw i32 %158, 58
  %160 = trunc i32 %159 to i8
  %161 = load i32, i32* %2, align 4
  %162 = sext i32 %161 to i64
  %163 = getelementptr inbounds [100 x [200 x i8]], [100 x [200 x i8]]* %7, i64 0, i64 %162
  %164 = load i32, i32* %3, align 4
  %165 = sext i32 %164 to i64
  %166 = getelementptr inbounds [200 x i8], [200 x i8]* %163, i64 0, i64 %165
  store i8 %160, i8* %166, align 1
  store i32 -1, i32* %6, align 4
  br label %167

167:                                              ; preds = %139, %111
  br label %168

168:                                              ; preds = %167
  %169 = load i32, i32* %3, align 4
  %170 = add nsw i32 %169, -1
  store i32 %170, i32* %3, align 4
  br label %87

171:                                              ; preds = %87
  %172 = load i32, i32* %2, align 4
  %173 = load i32, i32* %1, align 4
  %174 = sub nsw i32 %173, 1
  %175 = icmp ne i32 %172, %174
  br i1 %175, label %176, label %182

176:                                              ; preds = %171
  %177 = load i32, i32* %2, align 4
  %178 = sext i32 %177 to i64
  %179 = getelementptr inbounds [100 x [200 x i8]], [100 x [200 x i8]]* %7, i64 0, i64 %178
  %180 = getelementptr inbounds [200 x i8], [200 x i8]* %179, i64 0, i64 0
  %181 = call i32 (i8*, ...) @printf(i8* getelementptr inbounds ([4 x i8], [4 x i8]* @.str.2, i64 0, i64 0), i8* %180)
  br label %188

182:                                              ; preds = %171
  %183 = load i32, i32* %2, align 4
  %184 = sext i32 %183 to i64
  %185 = getelementptr inbounds [100 x [200 x i8]], [100 x [200 x i8]]* %7, i64 0, i64 %184
  %186 = getelementptr inbounds [200 x i8], [200 x i8]* %185, i64 0, i64 0
  %187 = call i32 (i8*, ...) @printf(i8* getelementptr inbounds ([3 x i8], [3 x i8]* @.str.3, i64 0, i64 0), i8* %186)
  br label %188

188:                                              ; preds = %182, %176
  br label %189

189:                                              ; preds = %188
  %190 = load i32, i32* %2, align 4
  %191 = add nsw i32 %190, 1
  store i32 %191, i32* %2, align 4
  br label %29

192:                                              ; preds = %29
  ret void
}

declare dso_local i32 @__isoc99_scanf(i8*, ...) #1

; Function Attrs: nounwind
declare dso_local i8* @strcpy(i8*, i8*) #2

; Function Attrs: nounwind readonly
declare dso_local i64 @strlen(i8*) #3

; Function Attrs: nounwind
declare dso_local i8* @strcat(i8*, i8*) #2

declare dso_local i32 @printf(i8*, ...) #1


!llvm.module.flags = !{!0}
!llvm.ident = !{!1}

!0 = !{i32 1, !"wchar_size", i32 4}
!1 = !{!"clang version 10.0.0-4ubuntu1 "}
